; Function Attrs: nounwind uwtable
define dso_local void @zend_observer_fcall_end_prechecked(ptr noundef %0, ptr noundef %1) local_unnamed_addr #0 {
  %3 = getelementptr inbounds nuw i8, ptr %0, i64 24
  %4 = load ptr, ptr %3, align 8, !tbaa !69, !nonnull !71, !noundef !71
  %5 = getelementptr inbounds nuw i8, ptr %4, i64 56
  %6 = load ptr, ptr %5, align 8, !tbaa !34
  %7 = ptrtoint ptr %6 to i64
  %8 = and i64 %7, 1
  %.not.i = icmp eq i64 %8, 0
  br i1 %.not.i, label %13, label %9

9:                                                ; preds = %2
  %10 = load ptr, ptr getelementptr inbounds nuw (i8, ptr @compiler_globals, i64 512), align 8, !tbaa !68
  %11 = getelementptr inbounds i8, ptr %10, i64 %7
  %12 = load ptr, ptr %11, align 8, !tbaa !4
  br label %13

13:                                               ; preds = %9, %2
  %14 = phi ptr [ %12, %9 ], [ %6, %2 ]
  %15 = load i8, ptr %4, align 8, !tbaa !34
  %.not17.i = icmp eq i8 %15, 1
  %16 = load i32, ptr @zend_observer_fcall_op_array_extension, align 4
  %17 = load i32, ptr @zend_observer_fcall_internal_function_extension, align 4
  %18 = select i1 %.not17.i, i32 %17, i32 %16
  %19 = sext i32 %18 to i64
  %20 = getelementptr inbounds ptr, ptr %14, i64 %19
  %21 = load i64, ptr getelementptr inbounds nuw (i8, ptr @zend_observers_fcall_list, i64 16), align 8, !tbaa !10
  %22 = getelementptr inbounds nuw ptr, ptr %20, i64 %21
  %23 = load ptr, ptr %22, align 8, !tbaa !4
  %magicptr.i = ptrtoint ptr %23 to i64
  switch i64 %magicptr.i, label %24 [
    i64 0, label %call_end_observers.exit
    i64 2, label %call_end_observers.exit
  ]

24:                                               ; preds = %13
  %25 = getelementptr inbounds nuw ptr, ptr %22, i64 %21
  br label %26

26:                                               ; preds = %29, %24
  %27 = phi ptr [ %23, %24 ], [ %30, %29 ]
  %.0.i = phi ptr [ %22, %24 ], [ %28, %29 ]
  tail call void %27(ptr noundef %0, ptr noundef %1) #8
  %28 = getelementptr inbounds nuw i8, ptr %.0.i, i64 8
  %.not19.i = icmp eq ptr %28, %25
  br i1 %.not19.i, label %call_end_observers.exit.loopexit, label %29

29:                                               ; preds = %26
  %30 = load ptr, ptr %28, align 8, !tbaa !4
  %.not20.i = icmp eq ptr %30, null
  br i1 %.not20.i, label %call_end_observers.exit.loopexit, label %26

call_end_observers.exit.loopexit:                 ; preds = %29, %26
  %.pre = load ptr, ptr %3, align 8, !tbaa !69
  %.pre4 = load i8, ptr %.pre, align 8, !tbaa !34
  br label %call_end_observers.exit

call_end_observers.exit:                          ; preds = %call_end_observers.exit.loopexit, %13, %13
  %31 = phi i8 [ %.pre4, %call_end_observers.exit.loopexit ], [ %15, %13 ], [ %15, %13 ]
  %32 = phi ptr [ %.pre, %call_end_observers.exit.loopexit ], [ %4, %13 ], [ %4, %13 ]
  %.not.i3 = icmp eq i8 %31, 1
  %33 = getelementptr inbounds nuw i8, ptr %32, i64 92
  %34 = getelementptr inbounds nuw i8, ptr %0, i64 44
  %.in.i = select i1 %.not.i3, ptr %34, ptr %33
  %35 = load i32, ptr %.in.i, align 4, !tbaa !34
  %36 = getelementptr inbounds nuw i8, ptr %32, i64 72
  %37 = load i32, ptr %36, align 8, !tbaa !34
  %38 = add i32 %35, 4
  %39 = add i32 %38, %37
  %40 = sext i32 %39 to i64
  %41 = getelementptr inbounds %struct._zval_struct, ptr %0, i64 %40
  %42 = load ptr, ptr %41, align 8, !tbaa !73
  store ptr %42, ptr getelementptr inbounds nuw (i8, ptr @executor_globals, i64 536), align 8, !tbaa !43
  ret void
}